; Function Attrs: mustprogress uwtable
define noundef i32 @_ZNK9grpc_core27TlsChannelSecurityConnector3cmpEPK23grpc_security_connector(ptr noundef nonnull align 8 dereferenceable(280) %0, ptr noundef %1) unnamed_addr #3 align 2 personality ptr @__gxx_personality_v0 {
  %3 = alloca %"class.std::basic_string_view", align 8
  %4 = tail call noundef i32 @_ZNK31grpc_channel_security_connector30channel_security_connector_cmpEPKS_(ptr noundef nonnull align 8 dereferenceable(56) %0, ptr noundef %1)
  %.not = icmp eq i32 %4, 0
  br i1 %.not, label %5, label %20

5:                                                ; preds = %2
  %6 = getelementptr inbounds nuw i8, ptr %0, i64 88
  %7 = load ptr, ptr %6, align 8, !tbaa !75
  %8 = tail call noundef i64 @strlen(ptr noundef nonnull dereferenceable(1) %7) #28
  %9 = getelementptr inbounds nuw i8, ptr %1, i64 88
  %10 = load ptr, ptr %9, align 8, !tbaa !75
  %11 = tail call noundef i64 @strlen(ptr noundef nonnull dereferenceable(1) %10) #28
  %12 = getelementptr inbounds nuw i8, ptr %0, i64 120
  %13 = load ptr, ptr %12, align 8, !tbaa !75
  %14 = tail call noundef i64 @strlen(ptr noundef nonnull dereferenceable(1) %13) #28
  %15 = getelementptr inbounds nuw i8, ptr %1, i64 120
  %16 = load ptr, ptr %15, align 8, !tbaa !75
  %17 = tail call noundef i64 @strlen(ptr noundef nonnull dereferenceable(1) %16) #28
  store i64 %17, ptr %3, align 8, !tbaa !161
  %18 = getelementptr inbounds nuw i8, ptr %3, i64 8
  store ptr %16, ptr %18, align 8, !tbaa !162
  %19 = tail call noundef i32 @_Z24grpc_ssl_cmp_target_nameSt17basic_string_viewIcSt11char_traitsIcEES2_S2_S2_(i64 %8, ptr nonnull %7, i64 %11, ptr nonnull %10, i64 %14, ptr nonnull %13, ptr noundef nonnull byval(%"class.std::basic_string_view") align 8 %3)
  br label %20

20:                                               ; preds = %5, %2
  %.0 = phi i32 [ %4, %2 ], [ %19, %5 ]
  ret i32 %.0
}